ccopy_reg
_reconstructor
p0
(cdedupe.datamodel
DataModel
p1
c__builtin__
dict
p2
(dp3
S'fields'
p4
(lp5
g0
(cdedupe.fieldclasses
StringType
p6
c__builtin__
object
p7
Ntp8
Rp9
(dp10
S'predicates'
p11
(lp12
g0
(cdedupe.predicates
SimplePredicate
p13
g7
Ntp14
Rp15
(dp16
S'__name__'
p17
S'(wholeFieldPredicate, name)'
p18
sS'func'
p19
cdedupe.predicates
wholeFieldPredicate
p20
sS'field'
p21
S'name'
p22
sbag0
(g13
g7
Ntp23
Rp24
(dp25
g17
S'(tokenFieldPredicate, name)'
p26
sg19
cdedupe.predicates
tokenFieldPredicate
p27
sg21
g22
sbag0
(g13
g7
Ntp28
Rp29
(dp30
g17
S'(firstTokenPredicate, name)'
p31
sg19
cdedupe.predicates
firstTokenPredicate
p32
sg21
g22
sbag0
(g13
g7
Ntp33
Rp34
(dp35
g17
S'(commonIntegerPredicate, name)'
p36
sg19
cdedupe.predicates
commonIntegerPredicate
p37
sg21
g22
sbag0
(g13
g7
Ntp38
Rp39
(dp40
g17
S'(nearIntegersPredicate, name)'
p41
sg19
cdedupe.predicates
nearIntegersPredicate
p42
sg21
g22
sbag0
(g13
g7
Ntp43
Rp44
(dp45
g17
S'(firstIntegerPredicate, name)'
p46
sg19
cdedupe.predicates
firstIntegerPredicate
p47
sg21
g22
sbag0
(g13
g7
Ntp48
Rp49
(dp50
g17
S'(sameThreeCharStartPredicate, name)'
p51
sg19
cdedupe.predicates
sameThreeCharStartPredicate
p52
sg21
g22
sbag0
(g13
g7
Ntp53
Rp54
(dp55
g17
S'(sameFiveCharStartPredicate, name)'
p56
sg19
cdedupe.predicates
sameFiveCharStartPredicate
p57
sg21
g22
sbag0
(g13
g7
Ntp58
Rp59
(dp60
g17
S'(sameSevenCharStartPredicate, name)'
p61
sg19
cdedupe.predicates
sameSevenCharStartPredicate
p62
sg21
g22
sbag0
(g13
g7
Ntp63
Rp64
(dp65
g17
S'(commonFourGram, name)'
p66
sg19
cdedupe.predicates
commonFourGram
p67
sg21
g22
sbag0
(g13
g7
Ntp68
Rp69
(dp70
g17
S'(commonSixGram, name)'
p71
sg19
cdedupe.predicates
commonSixGram
p72
sg21
g22
sbag0
(cdedupe.predicates
TfidfPredicate
p73
g7
Ntp74
Rp75
(dp76
S'threshold'
p77
F0.2
sg17
S'(0.2, name)'
p78
sg21
g22
sbag0
(g73
g7
Ntp79
Rp80
(dp81
g77
F0.4
sg17
S'(0.4, name)'
p82
sg21
g22
sbag0
(g73
g7
Ntp83
Rp84
(dp85
g77
F0.6
sg17
S'(0.6, name)'
p86
sg21
g22
sbag0
(g73
g7
Ntp87
Rp88
(dp89
g77
F0.8
sg17
S'(0.8, name)'
p90
sg21
g22
sbasg21
g22
sg22
S'(name: String)'
p91
sS'weight'
p92
F-2.0747833251953125
sS'has_missing'
p93
I00
sbag0
(cdedupe.fieldclasses
TextType
p94
g7
Ntp95
Rp96
(dp97
g22
S'(description: Text)'
p98
sS'comparator'
p99
g0
(cdedupe.distance.cosine
CosineTextSimilarity
p100
g7
Ntp101
Rp102
(dp103
S'default_score'
p104
F1.0
sS'vectors'
p105
(dp106
sS'doc_freq'
p107
(dp108
sbsg92
F1.2455759048461914
sg21
S'description'
p109
sg93
I01
sg11
(lp110
g0
(g13
g7
Ntp111
Rp112
(dp113
g17
S'(wholeFieldPredicate, description)'
p114
sg19
g20
sg21
g109
sbag0
(g13
g7
Ntp115
Rp116
(dp117
g17
S'(tokenFieldPredicate, description)'
p118
sg19
g27
sg21
g109
sbag0
(g13
g7
Ntp119
Rp120
(dp121
g17
S'(firstTokenPredicate, description)'
p122
sg19
g32
sg21
g109
sbag0
(g13
g7
Ntp123
Rp124
(dp125
g17
S'(commonIntegerPredicate, description)'
p126
sg19
g37
sg21
g109
sbag0
(g13
g7
Ntp127
Rp128
(dp129
g17
S'(nearIntegersPredicate, description)'
p130
sg19
g42
sg21
g109
sbag0
(g13
g7
Ntp131
Rp132
(dp133
g17
S'(firstIntegerPredicate, description)'
p134
sg19
g47
sg21
g109
sbag0
(g13
g7
Ntp135
Rp136
(dp137
g17
S'(sameThreeCharStartPredicate, description)'
p138
sg19
g52
sg21
g109
sbag0
(g13
g7
Ntp139
Rp140
(dp141
g17
S'(sameFiveCharStartPredicate, description)'
p142
sg19
g57
sg21
g109
sbag0
(g13
g7
Ntp143
Rp144
(dp145
g17
S'(sameSevenCharStartPredicate, description)'
p146
sg19
g62
sg21
g109
sbag0
(g13
g7
Ntp147
Rp148
(dp149
g17
S'(commonFourGram, description)'
p150
sg19
g67
sg21
g109
sbag0
(g13
g7
Ntp151
Rp152
(dp153
g17
S'(commonSixGram, description)'
p154
sg19
g72
sg21
g109
sbag0
(g73
g7
Ntp155
Rp156
(dp157
g77
F0.2
sg17
S'(0.2, description)'
p158
sg21
g109
sbag0
(g73
g7
Ntp159
Rp160
(dp161
g77
F0.4
sg17
S'(0.4, description)'
p162
sg21
g109
sbag0
(g73
g7
Ntp163
Rp164
(dp165
g77
F0.6
sg17
S'(0.6, description)'
p166
sg21
g109
sbag0
(g73
g7
Ntp167
Rp168
(dp169
g77
F0.8
sg17
S'(0.8, description)'
p170
sg21
g109
sbasbag0
(g6
g7
Ntp171
Rp172
(dp173
g11
(lp174
g0
(g13
g7
Ntp175
Rp176
(dp177
g17
S'(wholeFieldPredicate, twitter_screen_name)'
p178
sg19
g20
sg21
S'twitter_screen_name'
p179
sbag0
(g13
g7
Ntp180
Rp181
(dp182
g17
S'(tokenFieldPredicate, twitter_screen_name)'
p183
sg19
g27
sg21
g179
sbag0
(g13
g7
Ntp184
Rp185
(dp186
g17
S'(firstTokenPredicate, twitter_screen_name)'
p187
sg19
g32
sg21
g179
sbag0
(g13
g7
Ntp188
Rp189
(dp190
g17
S'(commonIntegerPredicate, twitter_screen_name)'
p191
sg19
g37
sg21
g179
sbag0
(g13
g7
Ntp192
Rp193
(dp194
g17
S'(nearIntegersPredicate, twitter_screen_name)'
p195
sg19
g42
sg21
g179
sbag0
(g13
g7
Ntp196
Rp197
(dp198
g17
S'(firstIntegerPredicate, twitter_screen_name)'
p199
sg19
g47
sg21
g179
sbag0
(g13
g7
Ntp200
Rp201
(dp202
g17
S'(sameThreeCharStartPredicate, twitter_screen_name)'
p203
sg19
g52
sg21
g179
sbag0
(g13
g7
Ntp204
Rp205
(dp206
g17
S'(sameFiveCharStartPredicate, twitter_screen_name)'
p207
sg19
g57
sg21
g179
sbag0
(g13
g7
Ntp208
Rp209
(dp210
g17
S'(sameSevenCharStartPredicate, twitter_screen_name)'
p211
sg19
g62
sg21
g179
sbag0
(g13
g7
Ntp212
Rp213
(dp214
g17
S'(commonFourGram, twitter_screen_name)'
p215
sg19
g67
sg21
g179
sbag0
(g13
g7
Ntp216
Rp217
(dp218
g17
S'(commonSixGram, twitter_screen_name)'
p219
sg19
g72
sg21
g179
sbag0
(g73
g7
Ntp220
Rp221
(dp222
g77
F0.2
sg17
S'(0.2, twitter_screen_name)'
p223
sg21
g179
sbag0
(g73
g7
Ntp224
Rp225
(dp226
g77
F0.4
sg17
S'(0.4, twitter_screen_name)'
p227
sg21
g179
sbag0
(g73
g7
Ntp228
Rp229
(dp230
g77
F0.6
sg17
S'(0.6, twitter_screen_name)'
p231
sg21
g179
sbag0
(g73
g7
Ntp232
Rp233
(dp234
g77
F0.8
sg17
S'(0.8, twitter_screen_name)'
p235
sg21
g179
sbasg21
g179
sg22
S'(twitter_screen_name: String)'
p236
sg92
F-0.8665280938148499
sg93
I01
sbag0
(g6
g7
Ntp237
Rp238
(dp239
g11
(lp240
g0
(g13
g7
Ntp241
Rp242
(dp243
g17
S'(wholeFieldPredicate, lang)'
p244
sg19
g20
sg21
S'lang'
p245
sbag0
(g13
g7
Ntp246
Rp247
(dp248
g17
S'(tokenFieldPredicate, lang)'
p249
sg19
g27
sg21
g245
sbag0
(g13
g7
Ntp250
Rp251
(dp252
g17
S'(firstTokenPredicate, lang)'
p253
sg19
g32
sg21
g245
sbag0
(g13
g7
Ntp254
Rp255
(dp256
g17
S'(commonIntegerPredicate, lang)'
p257
sg19
g37
sg21
g245
sbag0
(g13
g7
Ntp258
Rp259
(dp260
g17
S'(nearIntegersPredicate, lang)'
p261
sg19
g42
sg21
g245
sbag0
(g13
g7
Ntp262
Rp263
(dp264
g17
S'(firstIntegerPredicate, lang)'
p265
sg19
g47
sg21
g245
sbag0
(g13
g7
Ntp266
Rp267
(dp268
g17
S'(sameThreeCharStartPredicate, lang)'
p269
sg19
g52
sg21
g245
sbag0
(g13
g7
Ntp270
Rp271
(dp272
g17
S'(sameFiveCharStartPredicate, lang)'
p273
sg19
g57
sg21
g245
sbag0
(g13
g7
Ntp274
Rp275
(dp276
g17
S'(sameSevenCharStartPredicate, lang)'
p277
sg19
g62
sg21
g245
sbag0
(g13
g7
Ntp278
Rp279
(dp280
g17
S'(commonFourGram, lang)'
p281
sg19
g67
sg21
g245
sbag0
(g13
g7
Ntp282
Rp283
(dp284
g17
S'(commonSixGram, lang)'
p285
sg19
g72
sg21
g245
sbag0
(g73
g7
Ntp286
Rp287
(dp288
g77
F0.2
sg17
S'(0.2, lang)'
p289
sg21
g245
sbag0
(g73
g7
Ntp290
Rp291
(dp292
g77
F0.4
sg17
S'(0.4, lang)'
p293
sg21
g245
sbag0
(g73
g7
Ntp294
Rp295
(dp296
g77
F0.6
sg17
S'(0.6, lang)'
p297
sg21
g245
sbag0
(g73
g7
Ntp298
Rp299
(dp300
g77
F0.8
sg17
S'(0.8, lang)'
p301
sg21
g245
sbasg21
g245
sg22
S'(lang: String)'
p302
sg92
F0.4437946081161499
sg93
I01
sbag0
(g6
g7
Ntp303
Rp304
(dp305
g11
(lp306
g0
(g13
g7
Ntp307
Rp308
(dp309
g17
S'(wholeFieldPredicate, location)'
p310
sg19
g20
sg21
S'location'
p311
sbag0
(g13
g7
Ntp312
Rp313
(dp314
g17
S'(tokenFieldPredicate, location)'
p315
sg19
g27
sg21
g311
sbag0
(g13
g7
Ntp316
Rp317
(dp318
g17
S'(firstTokenPredicate, location)'
p319
sg19
g32
sg21
g311
sbag0
(g13
g7
Ntp320
Rp321
(dp322
g17
S'(commonIntegerPredicate, location)'
p323
sg19
g37
sg21
g311
sbag0
(g13
g7
Ntp324
Rp325
(dp326
g17
S'(nearIntegersPredicate, location)'
p327
sg19
g42
sg21
g311
sbag0
(g13
g7
Ntp328
Rp329
(dp330
g17
S'(firstIntegerPredicate, location)'
p331
sg19
g47
sg21
g311
sbag0
(g13
g7
Ntp332
Rp333
(dp334
g17
S'(sameThreeCharStartPredicate, location)'
p335
sg19
g52
sg21
g311
sbag0
(g13
g7
Ntp336
Rp337
(dp338
g17
S'(sameFiveCharStartPredicate, location)'
p339
sg19
g57
sg21
g311
sbag0
(g13
g7
Ntp340
Rp341
(dp342
g17
S'(sameSevenCharStartPredicate, location)'
p343
sg19
g62
sg21
g311
sbag0
(g13
g7
Ntp344
Rp345
(dp346
g17
S'(commonFourGram, location)'
p347
sg19
g67
sg21
g311
sbag0
(g13
g7
Ntp348
Rp349
(dp350
g17
S'(commonSixGram, location)'
p351
sg19
g72
sg21
g311
sbag0
(g73
g7
Ntp352
Rp353
(dp354
g77
F0.2
sg17
S'(0.2, location)'
p355
sg21
g311
sbag0
(g73
g7
Ntp356
Rp357
(dp358
g77
F0.4
sg17
S'(0.4, location)'
p359
sg21
g311
sbag0
(g73
g7
Ntp360
Rp361
(dp362
g77
F0.6
sg17
S'(0.6, location)'
p363
sg21
g311
sbag0
(g73
g7
Ntp364
Rp365
(dp366
g77
F0.8
sg17
S'(0.8, location)'
p367
sg21
g311
sbasg21
g311
sg22
S'(location: String)'
p368
sg92
F-0.35979539155960083
sg93
I01
sbag0
(cdedupe.fieldclasses
MissingDataType
p369
g7
Ntp370
Rp371
(dp372
g93
I00
sg22
S'((location: String): Not Missing)'
p373
sg92
F-1.2690362930297852
sbag0
(g369
g7
Ntp374
Rp375
(dp376
g93
I00
sg22
S'((twitter_screen_name: String): Not Missing)'
p377
sg92
F1.732725739479065
sbag0
(g369
g7
Ntp378
Rp379
(dp380
g93
I00
sg22
S'((description: Text): Not Missing)'
p381
sg92
F0.5287821888923645
sbag0
(g369
g7
Ntp382
Rp383
(dp384
g93
I00
sg22
S'((lang: String): Not Missing)'
p385
sg92
F1.3503071069717407
sbasS'bias'
p386
F1.7122546434402466
stp387
Rp388
(dp389
S'total_fields'
p390
I9
sb.(lp0
ccopy_reg
_reconstructor
p1
(cdedupe.predicates
CompoundPredicate
p2
c__builtin__
object
p3
Ntp4
Rp5
(dp6
S'predicates'
p7
(g1
(cdedupe.predicates
SimplePredicate
p8
g3
Ntp9
Rp10
(dp11
S'__name__'
p12
S'(sameSevenCharStartPredicate, name)'
p13
sS'func'
p14
cdedupe.predicates
sameSevenCharStartPredicate
p15
sS'field'
p16
S'name'
p17
sbg1
(g8
g3
Ntp18
Rp19
(dp20
g12
S'(wholeFieldPredicate, name)'
p21
sg14
cdedupe.predicates
wholeFieldPredicate
p22
sg16
g17
sbtp23
sg12
V(SimplePredicate: (sameSevenCharStartPredicate, name), SimplePredicate: (wholeFieldPredicate, name))
p24
sbag1
(g2
g3
Ntp25
Rp26
(dp27
g7
(g1
(cdedupe.predicates
TfidfPredicate
p28
g3
Ntp29
Rp30
(dp31
S'threshold'
p32
F0.8
sg12
S'(0.8, twitter_screen_name)'
p33
sg16
S'twitter_screen_name'
p34
sbg1
(g28
g3
Ntp35
Rp36
(dp37
g32
F0.4
sg12
S'(0.4, twitter_screen_name)'
p38
sg16
g34
sbtp39
sg12
V(TfidfPredicate: (0.8, twitter_screen_name), TfidfPredicate: (0.4, twitter_screen_name))
p40
sbag1
(g2
g3
Ntp41
Rp42
(dp43
g7
(g1
(g8
g3
Ntp44
Rp45
(dp46
g12
S'(sameFiveCharStartPredicate, name)'
p47
sg14
cdedupe.predicates
sameFiveCharStartPredicate
p48
sg16
g17
sbg1
(g8
g3
Ntp49
Rp50
(dp51
g12
S'(sameSevenCharStartPredicate, location)'
p52
sg14
g15
sg16
S'location'
p53
sbtp54
sg12
V(SimplePredicate: (sameFiveCharStartPredicate, name), SimplePredicate: (sameSevenCharStartPredicate, location))
p55
sbag1
(g2
g3
Ntp56
Rp57
(dp58
g7
(g1
(g8
g3
Ntp59
Rp60
(dp61
g12
S'(firstTokenPredicate, name)'
p62
sg14
cdedupe.predicates
firstTokenPredicate
p63
sg16
g17
sbg1
(g8
g3
Ntp64
Rp65
(dp66
g12
S'(tokenFieldPredicate, description)'
p67
sg14
cdedupe.predicates
tokenFieldPredicate
p68
sg16
S'description'
p69
sbtp70
sg12
V(SimplePredicate: (firstTokenPredicate, name), SimplePredicate: (tokenFieldPredicate, description))
p71
sbag1
(g2
g3
Ntp72
Rp73
(dp74
g7
(g1
(g8
g3
Ntp75
Rp76
(dp77
g12
S'(commonSixGram, name)'
p78
sg14
cdedupe.predicates
commonSixGram
p79
sg16
g17
sbg60
tp80
sg12
V(SimplePredicate: (commonSixGram, name), SimplePredicate: (firstTokenPredicate, name))
p81
sbag1
(g2
g3
Ntp82
Rp83
(dp84
g7
(g76
g1
(g8
g3
Ntp85
Rp86
(dp87
g12
S'(tokenFieldPredicate, name)'
p88
sg14
g68
sg16
g17
sbtp89
sg12
V(SimplePredicate: (commonSixGram, name), SimplePredicate: (tokenFieldPredicate, name))
p90
sba.(dp0
S'lang'
p1
c__builtin__
set
p2
((lp3
S'en'
p4
atp5
Rp6
sS'location'
p7
g2
((lp8
tp9
Rp10
sS'twitter_screen_name'
p11
g2
((lp12
tp13
Rp14
sS'name'
p15
g2
((lp16
tp17
Rp18
sS'description'
p19
g2
((lp20
tp21
Rp22
s.